Certificate:
    Data:
        Version: 3 (0x2)
        Serial Number:
            ff:8f:6a:50:fa:f5:44:0b:55:8d:72:fc:c2:79:0b:f9
    Signature Algorithm: sha256WithRSAEncryption
        Issuer: C=DE, ST=BW, L=Grossrinderfeld, O=Adiscon GmbH., CN=testbench.rsyslog.com/emailAddress=webmaster@testbench.rsyslog.com
        Validity
            Not Before: Jun 26 10:21:58 2018 GMT
            Not After : Jun 26 10:21:58 2019 GMT
        Subject: C=DE, ST=BW, L=Grossrinderfeld, O=Adiscon GmbH., CN=server.testbench.rsyslog.com
        Subject Public Key Info:
            Public Key Algorithm: rsaEncryption
                Public-Key: (2048 bit)
                Modulus:
                    00:ec:83:ff:a9:0f:87:36:ab:4e:c5:95:8c:f8:ca:
                    66:5e:bc:e4:bb:71:19:b7:2f:8f:f8:1c:fe:0a:e1:
                    88:28:91:8b:91:b7:2a:ba:a1:5a:31:65:08:d2:96:
                    79:0b:28:05:67:72:61:c5:e4:b9:45:57:16:43:ae:
                    4a:bc:ed:ba:0c:92:a5:3d:26:a6:91:93:89:73:b6:
                    cf:aa:99:71:b0:27:9b:0c:2b:e3:8a:84:66:7f:9a:
                    66:21:28:1c:d1:a9:83:d5:2d:72:d7:95:2f:a9:8d:
                    50:b0:0b:d7:51:ed:c5:f2:29:46:0e:b6:a8:7d:f0:
                    ae:1d:3e:15:11:83:c7:33:6f:ca:72:09:4f:3b:8a:
                    3a:34:6a:61:d3:e7:09:75:14:a6:7f:b4:d0:cb:13:
                    21:3f:6b:32:62:77:96:52:60:5c:fc:55:fe:40:ca:
                    31:3f:e4:88:2a:60:cb:16:53:64:63:88:c8:4c:28:
                    30:87:eb:01:5e:94:f2:d1:55:57:27:a1:52:5b:00:
                    62:35:9d:c9:e9:52:fa:a2:1b:2d:b1:a9:c1:e6:0b:
                    46:8c:4f:7a:12:55:ff:68:c8:07:b6:b7:5d:bf:78:
                    12:8f:66:66:2a:a2:97:25:48:4e:1a:82:90:7d:00:
                    e1:18:d8:45:e5:ca:19:b9:92:24:cd:23:60:06:bf:
                    45:6f
                Exponent: 65537 (0x10001)
        X509v3 extensions:
            X509v3 Basic Constraints: 
                CA:FALSE
            X509v3 Subject Alternative Name: 
                DNS:server.testbench.rsyslog.com
            X509v3 Subject Key Identifier: 
                DD:99:A7:AE:34:84:2F:A3:10:ED:F0:FE:D1:54:A3:57:B7:52:F2:F1
    Signature Algorithm: sha256WithRSAEncryption
         39:aa:29:d4:15:f1:bb:06:36:75:eb:0c:b9:77:86:33:5a:a7:
         bf:9f:0b:ef:a8:c7:39:a6:ae:08:8f:c2:7c:43:ed:88:b5:64:
         07:ed:10:39:72:15:6b:4b:7c:29:69:df:34:de:b3:b7:d5:69:
         2c:f6:e2:64:e8:c6:60:a2:e8:64:d7:b7:9a:05:8d:4b:82:c7:
         d5:5a:be:d2:e1:43:dc:b5:0c:dd:80:d7:d4:27:03:7d:8e:79:
         99:2c:cc:3e:11:d0:83:9f:5b:76:91:23:a4:fc:1a:10:7e:a0:
         f5:55:7f:08:41:af:af:c8:ae:e2:d5:d6:40:14:c7:8c:a7:c8:
         40:4d:0a:23:83:36:bf:af:f1:77:07:33:ff:dc:08:98:a9:69:
         de:b3:fe:62:1b:9b:53:73:8e:6c:59:41:77:2a:40:32:ab:23:
         46:fa:92:1f:25:1e:79:f1:cc:7a:88:1d:2a:04:90:5f:68:e3:
         73:05:2e:15:02:11:71:1d:cb:89:ac:ee:fe:81:df:e5:0e:d7:
         bc:25:36:c2:a1:6f:3b:cc:75:bb:08:fa:3e:0b:31:aa:34:c6:
         f2:93:b7:30:4a:15:f8:9e:a2:d5:61:4f:d8:d6:e7:a4:66:28:
         5c:36:af:95:35:90:55:af:af:c2:99:a3:13:63:50:da:13:44:
         23:61:7a:da
-----BEGIN CERTIFICATE-----
MIID8DCCAtigAwIBAgIRAP+PalD69UQLVY1y/MJ5C/kwDQYJKoZIhvcNAQELBQAw
gZwxCzAJBgNVBAYTAkRFMQswCQYDVQQIDAJCVzEYMBYGA1UEBwwPR3Jvc3NyaW5k
ZXJmZWxkMRYwFAYDVQQKDA1BZGlzY29uIEdtYkguMR4wHAYDVQQDDBV0ZXN0YmVu
Y2gucnN5c2xvZy5jb20xLjAsBgkqhkiG9w0BCQEWH3dlYm1hc3RlckB0ZXN0YmVu
Y2gucnN5c2xvZy5jb20wHhcNMTgwNjI2MTAyMTU4WhcNMTkwNjI2MTAyMTU4WjBz
MQswCQYDVQQGEwJERTELMAkGA1UECAwCQlcxGDAWBgNVBAcMD0dyb3NzcmluZGVy
ZmVsZDEWMBQGA1UECgwNQWRpc2NvbiBHbWJILjElMCMGA1UEAwwcc2VydmVyLnRl
c3RiZW5jaC5yc3lzbG9nLmNvbTCCASIwDQYJKoZIhvcNAQEBBQADggEPADCCAQoC
ggEBAOyD/6kPhzarTsWVjPjKZl685LtxGbcvj/gc/grhiCiRi5G3KrqhWjFlCNKW
eQsoBWdyYcXkuUVXFkOuSrztugySpT0mppGTiXO2z6qZcbAnmwwr44qEZn+aZiEo
HNGpg9UtcteVL6mNULAL11HtxfIpRg62qH3wrh0+FRGDxzNvynIJTzuKOjRqYdPn
CXUUpn+00MsTIT9rMmJ3llJgXPxV/kDKMT/kiCpgyxZTZGOIyEwoMIfrAV6U8tFV
VyehUlsAYjWdyelS+qIbLbGpweYLRoxPehJV/2jIB7a3Xb94Eo9mZiqilyVIThqC
kH0A4RjYReXKGbmSJM0jYAa/RW8CAwEAAaNVMFMwCQYDVR0TBAIwADAnBgNVHREE
IDAeghxzZXJ2ZXIudGVzdGJlbmNoLnJzeXNsb2cuY29tMB0GA1UdDgQWBBTdmaeu
NIQvoxDt8P7RVKNXt1Ly8TANBgkqhkiG9w0BAQsFAAOCAQEAOaop1BXxuwY2desM
uXeGM1qnv58L76jHOaauCI/CfEPtiLVkB+0QOXIVa0t8KWnfNN6zt9VpLPbiZOjG
YKLoZNe3mgWNS4LH1Vq+0uFD3LUM3YDX1CcDfY55mSzMPhHQg59bdpEjpPwaEH6g
9VV/CEGvr8iu4tXWQBTHjKfIQE0KI4M2v6/xdwcz/9wImKlp3rP+YhubU3OObFlB
dypAMqsjRvqSHyUeefHMeogdKgSQX2jjcwUuFQIRcR3Liazu/oHf5Q7XvCU2wqFv
O8x1uwj6PgsxqjTG8pO3MEoV+J6i1WFP2NbnpGYoXDavlTWQVa+vwpmjE2NQ2hNE
I2F62g==
-----END CERTIFICATE-----
