Certificate:
    Data:
        Version: 3 (0x2)
        Serial Number:
            ff:8f:6a:50:fa:f5:44:0b:55:8d:72:fc:c2:79:0b:fa
    Signature Algorithm: sha256WithRSAEncryption
        Issuer: C=DE, ST=BW, L=Grossrinderfeld, O=Adiscon GmbH., CN=testbench.rsyslog.com/emailAddress=webmaster@testbench.rsyslog.com
        Validity
            Not Before: Jun 26 10:21:58 2018 GMT
            Not After : Jun 26 10:21:58 2019 GMT
        Subject: C=DE, ST=BW, L=Grossrinderfeld, O=Adiscon GmbH., CN=client.testbench.rsyslog.com
        Subject Public Key Info:
            Public Key Algorithm: rsaEncryption
                Public-Key: (2048 bit)
                Modulus:
                    00:a6:df:81:3b:f9:1f:d2:42:d8:fb:2f:fe:c4:87:
                    c1:81:69:20:53:9a:38:66:33:a6:60:a2:a7:15:76:
                    2c:e7:8c:dc:99:ea:e1:c4:d4:0b:91:a1:d9:0b:2d:
                    17:ed:02:00:c3:5b:9e:8f:d8:cb:a6:9f:d6:9d:5e:
                    be:de:c4:82:e3:30:7b:ae:8a:6e:89:a4:39:b1:b5:
                    2a:f6:a2:5c:ee:c7:c6:62:96:92:7a:d1:42:22:8d:
                    b3:a2:6a:d1:95:47:6e:5c:11:4d:4a:3b:6e:cb:f3:
                    46:83:84:b6:a3:69:56:32:49:41:40:07:b6:df:72:
                    0c:3e:b7:d6:a6:47:91:dc:08:d4:1c:9c:cb:6e:5d:
                    b1:f7:69:39:9a:66:44:1f:1b:f3:31:7d:51:15:a9:
                    c1:d1:2b:2c:2b:74:cd:c7:70:03:ff:ec:86:0c:ea:
                    8c:55:f3:ed:12:c8:f3:09:ab:b6:c4:c9:f0:34:84:
                    1b:5c:72:06:4a:d6:74:4a:0a:3c:c9:be:2a:67:70:
                    e8:44:ce:4d:10:fa:22:04:81:38:f3:a7:41:65:51:
                    b4:e2:b9:f5:7d:72:9b:54:d9:44:5d:5f:23:d1:cc:
                    65:be:0d:11:56:3c:2a:3d:6a:53:62:8b:73:70:6c:
                    46:8e:e0:05:d8:89:da:d5:17:fd:1c:2f:d2:23:26:
                    82:21
                Exponent: 65537 (0x10001)
        X509v3 extensions:
            X509v3 Basic Constraints: 
                CA:FALSE
            X509v3 Subject Alternative Name: 
                DNS:client.testbench.rsyslog.com
            X509v3 Subject Key Identifier: 
                33:EF:BE:04:B5:01:D6:19:F3:CA:5A:21:51:9E:E5:79:C8:37:22:69
    Signature Algorithm: sha256WithRSAEncryption
         80:63:28:25:f9:b2:99:d1:6c:f9:38:0e:99:d4:1c:dd:3e:ea:
         58:77:d0:13:8e:27:3b:9f:e5:4a:66:62:35:d6:ae:a3:a2:6e:
         70:62:14:e8:e5:b9:16:7b:9a:5e:f6:13:85:84:34:33:d2:a6:
         9f:a6:79:73:f2:47:37:a8:d3:df:4c:66:0d:6e:43:e5:c3:ee:
         e9:b7:c0:ce:92:75:4b:e4:1d:a0:ab:51:3b:42:51:91:90:a1:
         cb:c3:77:90:5b:1f:1d:b4:01:9a:77:5a:32:5c:87:ba:24:0a:
         49:b0:6f:b8:9f:8e:e2:3e:5d:88:a6:32:db:82:d8:c1:ae:b2:
         44:88:72:55:6f:13:65:58:75:1b:2d:92:58:b5:af:23:5e:86:
         c6:db:f1:16:8a:70:d3:5c:6d:41:37:77:b2:24:62:b4:ab:79:
         55:00:ea:bc:cf:97:ab:51:12:82:3a:29:23:a4:cd:f7:aa:3d:
         c3:c3:06:0a:3f:b7:0e:d5:9d:35:ec:5f:26:e2:2c:7e:84:8d:
         83:dc:db:88:8f:88:a5:f4:82:23:b6:23:4a:84:ff:d8:53:08:
         9c:6a:cd:a9:43:b1:38:3a:a8:50:e6:52:50:dc:e8:58:f4:41:
         2a:72:5a:47:b4:9f:e3:ba:0e:34:5e:ce:f2:a9:65:31:75:6d:
         c9:56:35:0a
-----BEGIN CERTIFICATE-----
MIID8DCCAtigAwIBAgIRAP+PalD69UQLVY1y/MJ5C/owDQYJKoZIhvcNAQELBQAw
gZwxCzAJBgNVBAYTAkRFMQswCQYDVQQIDAJCVzEYMBYGA1UEBwwPR3Jvc3NyaW5k
ZXJmZWxkMRYwFAYDVQQKDA1BZGlzY29uIEdtYkguMR4wHAYDVQQDDBV0ZXN0YmVu
Y2gucnN5c2xvZy5jb20xLjAsBgkqhkiG9w0BCQEWH3dlYm1hc3RlckB0ZXN0YmVu
Y2gucnN5c2xvZy5jb20wHhcNMTgwNjI2MTAyMTU4WhcNMTkwNjI2MTAyMTU4WjBz
MQswCQYDVQQGEwJERTELMAkGA1UECAwCQlcxGDAWBgNVBAcMD0dyb3NzcmluZGVy
ZmVsZDEWMBQGA1UECgwNQWRpc2NvbiBHbWJILjElMCMGA1UEAwwcY2xpZW50LnRl
c3RiZW5jaC5yc3lzbG9nLmNvbTCCASIwDQYJKoZIhvcNAQEBBQADggEPADCCAQoC
ggEBAKbfgTv5H9JC2Psv/sSHwYFpIFOaOGYzpmCipxV2LOeM3Jnq4cTUC5Gh2Qst
F+0CAMNbno/Yy6af1p1evt7EguMwe66KbomkObG1KvaiXO7HxmKWknrRQiKNs6Jq
0ZVHblwRTUo7bsvzRoOEtqNpVjJJQUAHtt9yDD631qZHkdwI1Bycy25dsfdpOZpm
RB8b8zF9URWpwdErLCt0zcdwA//shgzqjFXz7RLI8wmrtsTJ8DSEG1xyBkrWdEoK
PMm+Kmdw6ETOTRD6IgSBOPOnQWVRtOK59X1ym1TZRF1fI9HMZb4NEVY8Kj1qU2KL
c3BsRo7gBdiJ2tUX/Rwv0iMmgiECAwEAAaNVMFMwCQYDVR0TBAIwADAnBgNVHREE
IDAeghxjbGllbnQudGVzdGJlbmNoLnJzeXNsb2cuY29tMB0GA1UdDgQWBBQz774E
tQHWGfPKWiFRnuV5yDciaTANBgkqhkiG9w0BAQsFAAOCAQEAgGMoJfmymdFs+TgO
mdQc3T7qWHfQE44nO5/lSmZiNdauo6JucGIU6OW5FnuaXvYThYQ0M9Kmn6Z5c/JH
N6jT30xmDW5D5cPu6bfAzpJ1S+QdoKtRO0JRkZChy8N3kFsfHbQBmndaMlyHuiQK
SbBvuJ+O4j5diKYy24LYwa6yRIhyVW8TZVh1Gy2SWLWvI16GxtvxFopw01xtQTd3
siRitKt5VQDqvM+Xq1ESgjopI6TN96o9w8MGCj+3DtWdNexfJuIsfoSNg9zbiI+I
pfSCI7YjSoT/2FMInGrNqUOxODqoUOZSUNzoWPRBKnJaR7Sf47oONF7O8qllMXVt
yVY1Cg==
-----END CERTIFICATE-----
